; ModuleID = '30/207.c'
source_filename = "30/207.c"
target datalayout = "e-m:e-p270:32:32-p271:32:32-p272:64:64-i64:64-f80:128-n8:16:32:64-S128"
target triple = "x86_64-pc-linux-gnu"

@.str = private unnamed_addr constant [3 x i8] c"%d\00", align 1
@.str.1 = private unnamed_addr constant [4 x i8] c"%d\0A\00", align 1

; Function Attrs: noinline nounwind uwtable
define dso_local void @main() #0 {
  %1 = alloca i32, align 4
  %2 = alloca i32, align 4
  %3 = alloca i32, align 4
  %4 = alloca i32, align 4
  %5 = alloca i32, align 4
  %6 = alloca i32, align 4
  store i32 0, i32* %6, align 4
  %7 = call i32 (i8*, ...) @__isoc99_scanf(i8* getelementptr inbounds ([3 x i8], [3 x i8]* @.str, i64 0, i64 0), i32* %2)
  store i32 1, i32* %1, align 4
  br label %8

8:                                                ; preds = %47, %0
  %9 = load i32, i32* %1, align 4
  %10 = load i32, i32* %2, align 4
  %11 = icmp sle i32 %9, %10
  br i1 %11, label %12, label %50

12:                                               ; preds = %8
  %13 = load i32, i32* %1, align 4
  %14 = sdiv i32 %13, 100
  store i32 %14, i32* %3, align 4
  %15 = load i32, i32* %1, align 4
  %16 = load i32, i32* %3, align 4
  %17 = mul nsw i32 %16, 100
  %18 = sub nsw i32 %15, %17
  %19 = sdiv i32 %18, 10
  store i32 %19, i32* %4, align 4
  %20 = load i32, i32* %1, align 4
  %21 = load i32, i32* %3, align 4
  %22 = mul nsw i32 %21, 100
  %23 = sub nsw i32 %20, %22
  %24 = load i32, i32* %4, align 4
  %25 = mul nsw i32 %24, 10
  %26 = sub nsw i32 %23, %25
  store i32 %26, i32* %5, align 4
  %27 = load i32, i32* %1, align 4
  %28 = srem i32 %27, 7
  %29 = icmp eq i32 %28, 0
  br i1 %29, label %39, label %30

30:                                               ; preds = %12
  %31 = load i32, i32* %3, align 4
  %32 = icmp eq i32 %31, 7
  br i1 %32, label %39, label %33

33:                                               ; preds = %30
  %34 = load i32, i32* %4, align 4
  %35 = icmp eq i32 %34, 7
  br i1 %35, label %39, label %36

36:                                               ; preds = %33
  %37 = load i32, i32* %5, align 4
  %38 = icmp eq i32 %37, 7
  br i1 %38, label %39, label %40

39:                                               ; preds = %36, %33, %30, %12
  br label %47

40:                                               ; preds = %36
  %41 = load i32, i32* %6, align 4
  %42 = load i32, i32* %1, align 4
  %43 = load i32, i32* %1, align 4
  %44 = mul nsw i32 %42, %43
  %45 = add nsw i32 %41, %44
  store i32 %45, i32* %6, align 4
  br label %46

46:                                               ; preds = %40
  br label %47

47:                                               ; preds = %46, %39
  %48 = load i32, i32* %1, align 4
  %49 = add nsw i32 %48, 1
  store i32 %49, i32* %1, align 4
  br label %8

50:                                               ; preds = %8
  %51 = load i32, i32* %6, align 4
  %52 = call i32 (i8*, ...) @printf(i8* getelementptr inbounds ([4 x i8], [4 x i8]* @.str.1, i64 0, i64 0), i32 %51)
  ret void
}

declare dso_local i32 @__isoc99_scanf(i8*, ...) #1

declare dso_local i32 @printf(i8*, ...) #1


!llvm.module.flags = !{!0}
!llvm.ident = !{!1}

!0 = !{i32 1, !"wchar_size", i32 4}
!1 = !{!"clang version 10.0.0-4ubuntu1 "}
